; Function Attrs: mustprogress nounwind uwtable
define internal void @_ZN12_GLOBAL__N_119BFSBlockDFSContents7dequeueEv(ptr dead_on_unwind noalias writable writeonly sret(%"class.clang::ento::WorkListUnit") align 8 captures(none) initializes((0, 32)) %0, ptr noundef nonnull align 8 dereferenceable(752) %1) unnamed_addr #3 align 2 {
  %3 = getelementptr inbounds nuw i8, ptr %1, i64 96
  %4 = tail call noundef zeroext i1 @_ZNK4llvm15SmallVectorBaseIjE5emptyEv(ptr noundef nonnull align 8 dereferenceable(16) %3) #17
  br i1 %4, label %12, label %5

5:                                                ; preds = %2
  %6 = load ptr, ptr %3, align 8
  %7 = tail call noundef i64 @_ZNK4llvm15SmallVectorBaseIjE4sizeEv(ptr noundef nonnull align 8 dereferenceable(16) %3) #17
  %8 = getelementptr inbounds %"class.clang::ento::WorkListUnit", ptr %6, i64 %7
  %9 = getelementptr inbounds i8, ptr %8, i64 -32
  %10 = tail call noundef i64 @_ZNK4llvm15SmallVectorBaseIjE4sizeEv(ptr noundef nonnull align 8 dereferenceable(16) %3) #17
  %11 = add i64 %10, -1
  tail call void @_ZN4llvm15SmallVectorBaseIjE8set_sizeEm(ptr noundef nonnull align 8 dereferenceable(16) %3, i64 noundef %11) #17
  tail call void @llvm.memcpy.p0.p0.i64(ptr noundef nonnull align 8 dereferenceable(32) %0, ptr noundef nonnull align 8 dereferenceable(32) %9, i64 32, i1 false)
  br label %28

12:                                               ; preds = %2
  %13 = getelementptr inbounds nuw i8, ptr %1, i64 32
  %14 = load ptr, ptr %13, align 8, !noalias !27
  tail call void @llvm.memcpy.p0.p0.i64(ptr noundef nonnull align 8 dereferenceable(32) %0, ptr noundef nonnull align 8 dereferenceable(32) %14, i64 32, i1 false)
  %15 = getelementptr inbounds nuw i8, ptr %1, i64 48
  %16 = load ptr, ptr %15, align 8
  %17 = getelementptr inbounds i8, ptr %16, i64 -32
  %.not.i = icmp eq ptr %14, %17
  br i1 %.not.i, label %20, label %18

18:                                               ; preds = %12
  %19 = getelementptr inbounds nuw i8, ptr %14, i64 32
  br label %_ZNSt5dequeIN5clang4ento12WorkListUnitESaIS2_EE9pop_frontEv.exit

20:                                               ; preds = %12
  %21 = getelementptr inbounds nuw i8, ptr %1, i64 40
  %22 = load ptr, ptr %21, align 8
  tail call void @_ZdlPvm(ptr noundef %22, i64 noundef 512) #18
  %23 = getelementptr inbounds nuw i8, ptr %1, i64 56
  %24 = load ptr, ptr %23, align 8
  %25 = getelementptr inbounds nuw i8, ptr %24, i64 8
  store ptr %25, ptr %23, align 8
  %26 = load ptr, ptr %25, align 8
  store ptr %26, ptr %21, align 8
  %27 = getelementptr inbounds nuw i8, ptr %26, i64 512
  store ptr %27, ptr %15, align 8
  br label %_ZNSt5dequeIN5clang4ento12WorkListUnitESaIS2_EE9pop_frontEv.exit

_ZNSt5dequeIN5clang4ento12WorkListUnitESaIS2_EE9pop_frontEv.exit: ; preds = %18, %20
  %storemerge.i = phi ptr [ %19, %18 ], [ %26, %20 ]
  store ptr %storemerge.i, ptr %13, align 8
  br label %28

28:                                               ; preds = %_ZNSt5dequeIN5clang4ento12WorkListUnitESaIS2_EE9pop_frontEv.exit, %5
  ret void
}